target datalayout = "e-m:e-p270:32:32-p271:32:32-p272:64:64-i64:64-i128:128-f80:128-n8:16:32:64-S128"
target triple = "x86_64-pc-linux-gnu"

%"class.OpenImageIO::v3_1_0::ustring" = type { ptr }

@_ZN11OpenImageIO6v3_1_012_GLOBAL__N_114wrap_type_nameE = internal global [8 x %"class.OpenImageIO::v3_1_0::ustring"] zeroinitializer, align 16

; Function Attrs: mustprogress nounwind uwtable
define linkonce_odr noundef ptr @_ZNK11OpenImageIO6v3_1_07ustring5c_strEv(ptr noundef nonnull align 8 dereferenceable(8) %0) #5 comdat align 2 {
  %2 = alloca ptr, align 8
  store ptr %0, ptr %2, align 8, !tbaa !3
  %3 = load ptr, ptr %2, align 8
  %4 = getelementptr inbounds nuw %"class.OpenImageIO::v3_1_0::ustring", ptr %3, i32 0, i32 0
  %5 = load ptr, ptr %4, align 8, !tbaa !10
  ret ptr %5
}

; Function Attrs: mustprogress nounwind uwtable
define noundef zeroext i8 @_ZN11OpenImageIO6v3_1_03Tex15decode_wrapmodeEPKc(ptr noundef %0) #5 {
  %2 = alloca i8, align 1
  %3 = alloca ptr, align 8
  %4 = alloca i32, align 4
  %5 = alloca i32, align 4
  store ptr %0, ptr %3, align 8, !tbaa !8
  call void @llvm.lifetime.start.p0(i64 4, ptr %4) #3
  store i32 0, ptr %4, align 4, !tbaa !17
  br label %6

6:                                                ; preds = %22, %1
  %7 = load i32, ptr %4, align 4, !tbaa !17
  %8 = icmp slt i32 %7, 7
  br i1 %8, label %10, label %9

9:                                                ; preds = %6
  store i32 2, ptr %5, align 4
  br label %25

10:                                               ; preds = %6
  %11 = load ptr, ptr %3, align 8, !tbaa !8
  %12 = load i32, ptr %4, align 4, !tbaa !17
  %13 = sext i32 %12 to i64
  %14 = getelementptr inbounds [8 x %"class.OpenImageIO::v3_1_0::ustring"], ptr @_ZN11OpenImageIO6v3_1_012_GLOBAL__N_114wrap_type_nameE, i64 0, i64 %13
  %15 = call noundef ptr @_ZNK11OpenImageIO6v3_1_07ustring5c_strEv(ptr noundef nonnull align 8 dereferenceable(8) %14) #3
  %16 = call i32 @strcmp(ptr noundef %11, ptr noundef %15) #10
  %17 = icmp ne i32 %16, 0
  br i1 %17, label %21, label %18

18:                                               ; preds = %10
  %19 = load i32, ptr %4, align 4, !tbaa !17
  %20 = trunc i32 %19 to i8
  store i8 %20, ptr %2, align 1
  store i32 1, ptr %5, align 4
  br label %25

21:                                               ; preds = %10
  br label %22

22:                                               ; preds = %21
  %23 = load i32, ptr %4, align 4, !tbaa !17
  %24 = add nsw i32 %23, 1
  store i32 %24, ptr %4, align 4, !tbaa !17
  br label %6, !llvm.loop !19

25:                                               ; preds = %18, %9
  call void @llvm.lifetime.end.p0(i64 4, ptr %4) #3
  %26 = load i32, ptr %5, align 4
  switch i32 %26, label %30 [
    i32 2, label %27
    i32 1, label %28
  ]

27:                                               ; preds = %25
  store i8 0, ptr %2, align 1
  br label %28

28:                                               ; preds = %27, %25
  %29 = load i8, ptr %2, align 1
  ret i8 %29

30:                                               ; preds = %25
  unreachable
}