; Function Attrs: mustprogress nofree nounwind willreturn memory(read, inaccessiblemem: none) uwtable
define noundef zeroext i8 @_ZN11OpenImageIO6v3_1_03Tex15decode_wrapmodeEPKc(ptr noundef readonly captures(none) %0) local_unnamed_addr #4 {
  br label %2

2:                                                ; preds = %1, %8
  %indvars.iv = phi i64 [ 0, %1 ], [ %indvars.iv.next, %8 ]
  %3 = getelementptr inbounds nuw [8 x %"class.OpenImageIO::v3_1_0::ustring"], ptr @_ZN11OpenImageIO6v3_1_012_GLOBAL__N_114wrap_type_nameE, i64 0, i64 %indvars.iv
  %4 = load ptr, ptr %3, align 8, !tbaa !3
  %5 = tail call i32 @strcmp(ptr noundef nonnull dereferenceable(1) %0, ptr noundef nonnull dereferenceable(1) %4) #9
  %.not = icmp eq i32 %5, 0
  br i1 %.not, label %6, label %8

6:                                                ; preds = %2
  %7 = trunc i64 %indvars.iv to i8
  br label %.loopexit

8:                                                ; preds = %2
  %indvars.iv.next = add nuw nsw i64 %indvars.iv, 1
  %exitcond = icmp eq i64 %indvars.iv.next, 7
  br i1 %exitcond, label %.loopexit, label %2, !llvm.loop !9

.loopexit:                                        ; preds = %8, %6
  %spec.select = phi i8 [ %7, %6 ], [ 0, %8 ]
  ret i8 %spec.select
}